; Function Attrs: nounwind uwtable
define dso_local range(i32 0, 2) i32 @WPACKET_reserve_bytes(ptr noundef readonly captures(none) %0, i64 noundef %1, ptr noundef writeonly captures(address_is_null) %2) local_unnamed_addr #0 {
  %4 = getelementptr inbounds nuw i8, ptr %0, i64 40
  %5 = load ptr, ptr %4, align 8, !tbaa !4
  %6 = icmp ne ptr %5, null
  %7 = icmp ne i64 %1, 0
  %8 = and i1 %7, %6
  br i1 %8, label %9, label %55, !prof !14

9:                                                ; preds = %3
  %10 = getelementptr inbounds nuw i8, ptr %0, i64 32
  %11 = load i64, ptr %10, align 8, !tbaa !15
  %12 = getelementptr inbounds nuw i8, ptr %0, i64 24
  %13 = load i64, ptr %12, align 8, !tbaa !16
  %14 = sub i64 %11, %13
  %15 = icmp ult i64 %14, %1
  br i1 %15, label %55, label %16

16:                                               ; preds = %9
  %17 = load ptr, ptr %0, align 8, !tbaa !17
  %.not = icmp eq ptr %17, null
  br i1 %.not, label %25, label %18

18:                                               ; preds = %16
  %19 = load i64, ptr %17, align 8, !tbaa !18
  %20 = sub i64 %19, %13
  %21 = icmp ult i64 %20, %1
  br i1 %21, label %22, label %25

22:                                               ; preds = %18
  %. = tail call i64 @llvm.umax.i64(i64 %1, i64 %19)
  %23 = shl nuw i64 %., 1
  %spec.store.select = tail call i64 @llvm.umax.i64(i64 %23, i64 256)
  %.inv = icmp sgt i64 %., -1
  %.027 = select i1 %.inv, i64 %spec.store.select, i64 -1
  %24 = tail call i64 @BUF_MEM_grow(ptr noundef nonnull %17, i64 noundef %.027) #12
  %.not41 = icmp eq i64 %24, 0
  br i1 %.not41, label %55, label %25

25:                                               ; preds = %22, %18, %16
  %.not34 = icmp eq ptr %2, null
  br i1 %.not34, label %55, label %26

26:                                               ; preds = %25
  %27 = getelementptr inbounds nuw i8, ptr %0, i64 8
  %28 = load ptr, ptr %27, align 8, !tbaa !20
  %.not.i = icmp eq ptr %28, null
  br i1 %.not.i, label %29, label %.thread17.i

29:                                               ; preds = %26
  %30 = load ptr, ptr %0, align 8, !tbaa !17
  %.not15.i = icmp eq ptr %30, null
  br i1 %.not15.i, label %.sink.split, label %31

31:                                               ; preds = %29
  %32 = getelementptr inbounds nuw i8, ptr %30, i64 8
  %33 = load ptr, ptr %32, align 8, !tbaa !21
  %34 = icmp eq ptr %33, null
  br i1 %34, label %.sink.split, label %.thread17.i

.thread17.i:                                      ; preds = %31, %26
  %35 = phi ptr [ %33, %31 ], [ %28, %26 ]
  %36 = getelementptr inbounds nuw i8, ptr %0, i64 48
  %37 = load i8, ptr %36, align 8
  %38 = and i8 %37, 1
  %.not16.i = icmp eq i8 %38, 0
  br i1 %.not16.i, label %46, label %39

39:                                               ; preds = %.thread17.i
  %40 = load i64, ptr %10, align 8, !tbaa !15
  %41 = getelementptr inbounds nuw i8, ptr %35, i64 %40
  %42 = getelementptr inbounds nuw i8, ptr %0, i64 16
  %43 = load i64, ptr %42, align 8, !tbaa !22
  %44 = sub i64 0, %43
  %45 = getelementptr inbounds i8, ptr %41, i64 %44
  br label %WPACKET_get_curr.exit

46:                                               ; preds = %.thread17.i
  %47 = getelementptr inbounds nuw i8, ptr %0, i64 16
  %48 = load i64, ptr %47, align 8, !tbaa !22
  %49 = getelementptr inbounds nuw i8, ptr %35, i64 %48
  br label %WPACKET_get_curr.exit

WPACKET_get_curr.exit:                            ; preds = %39, %46
  %.0.i = phi ptr [ %45, %39 ], [ %49, %46 ]
  store ptr %.0.i, ptr %2, align 8, !tbaa !23
  %50 = load i8, ptr %36, align 8
  %51 = and i8 %50, 1
  %.not35 = icmp eq i8 %51, 0
  br i1 %.not35, label %55, label %52

52:                                               ; preds = %WPACKET_get_curr.exit
  %53 = sub i64 0, %1
  %54 = getelementptr inbounds i8, ptr %.0.i, i64 %53
  br label %.sink.split

.sink.split:                                      ; preds = %29, %31, %52
  %.sink = phi ptr [ %54, %52 ], [ null, %31 ], [ null, %29 ]
  store ptr %.sink, ptr %2, align 8, !tbaa !23
  br label %55

55:                                               ; preds = %.sink.split, %22, %25, %WPACKET_get_curr.exit, %9, %3
  %.026 = phi i32 [ 0, %22 ], [ 0, %3 ], [ 0, %9 ], [ 1, %WPACKET_get_curr.exit ], [ 1, %25 ], [ 1, %.sink.split ]
  ret i32 %.026
}